; Function Attrs: mustprogress nounwind uwtable
define hidden void @_ZN7Compile12begin_methodEv(ptr nocapture noundef nonnull readonly align 8 dereferenceable(2316) %0) local_unnamed_addr #0 align 2 {
  %2 = getelementptr inbounds i8, ptr %0, i64 8
  %3 = load ptr, ptr %2, align 8
  %4 = getelementptr inbounds i8, ptr %3, i64 2296
  %5 = tail call { i64, i64 } @_ZN29CompositeElapsedCounterSource3nowEv() #17
  %6 = extractvalue { i64, i64 } %5, 0
  %7 = extractvalue { i64, i64 } %5, 1
  store i64 %6, ptr %4, align 8
  %.sroa.2.0..sroa_idx.i = getelementptr inbounds i8, ptr %3, i64 2304
  store i64 %7, ptr %.sroa.2.0..sroa_idx.i, align 8
  ret void
}